; Function Attrs: mustprogress uwtable
define void @_ZN7Imf_3_49addEnvmapERNS_6HeaderERKNS_6EnvmapE(ptr noundef nonnull align 8 dereferenceable(49) %0, ptr noundef nonnull align 4 dereferenceable(4) %1) local_unnamed_addr #3 personality ptr @__gxx_personality_v0 {
  %3 = alloca %"class.Imf_3_4::TypedAttribute.15", align 8
  call void @llvm.lifetime.start.p0(i64 16, ptr nonnull %3) #11
  call void @_ZN7Imf_3_414TypedAttributeINS_6EnvmapEEC1ERKS1_(ptr noundef nonnull align 8 dereferenceable(12) %3, ptr noundef nonnull align 4 dereferenceable(4) %1)
  invoke void @_ZN7Imf_3_46Header6insertEPKcRKNS_9AttributeE(ptr noundef nonnull align 8 dereferenceable(49) %0, ptr noundef nonnull @.str.50, ptr noundef nonnull align 8 dereferenceable(8) %3)
          to label %4 unwind label %5

4:                                                ; preds = %2
  call void @_ZN7Imf_3_414TypedAttributeINS_6EnvmapEED1Ev(ptr noundef nonnull align 8 dereferenceable(12) %3) #11
  call void @llvm.lifetime.end.p0(i64 16, ptr nonnull %3) #11
  ret void

5:                                                ; preds = %2
  %6 = landingpad { ptr, i32 }
          cleanup
  call void @_ZN7Imf_3_414TypedAttributeINS_6EnvmapEED1Ev(ptr noundef nonnull align 8 dereferenceable(12) %3) #11
  call void @llvm.lifetime.end.p0(i64 16, ptr nonnull %3) #11
  resume { ptr, i32 } %6
}